target datalayout = "e-m:e-p270:32:32-p271:32:32-p272:64:64-i64:64-i128:128-f80:128-n8:16:32:64-S128"
target triple = "x86_64-pc-linux-gnu"

%"class.rocksdb::Slice" = type { ptr, i64 }
%"struct.rocksdb::MergeOperator::MergeOperationInput" = type { ptr, ptr, ptr, ptr }
%"struct.rocksdb::MergeOperator::MergeOperationOutput" = type <{ ptr, ptr, i32, [4 x i8] }>
%"class.__gnu_cxx::__normal_iterator" = type { ptr }
%"struct.std::_Vector_base" = type { %"struct.std::_Vector_base<rocksdb::Slice, std::allocator<rocksdb::Slice>>::_Vector_impl" }
%"struct.std::_Vector_base<rocksdb::Slice, std::allocator<rocksdb::Slice>>::_Vector_impl" = type { %"struct.std::_Vector_base<rocksdb::Slice, std::allocator<rocksdb::Slice>>::_Vector_impl_data" }
%"struct.std::_Vector_base<rocksdb::Slice, std::allocator<rocksdb::Slice>>::_Vector_impl_data" = type { ptr, ptr, ptr }

; Function Attrs: mustprogress nounwind uwtable
define linkonce_odr void @_ZN9__gnu_cxx17__normal_iteratorIPKN7rocksdb5SliceESt6vectorIS2_SaIS2_EEEC2ERKS4_(ptr noundef nonnull align 8 dereferenceable(8) %0, ptr noundef nonnull align 8 dereferenceable(8) %1) unnamed_addr #1 comdat align 2 {
  %3 = alloca ptr, align 8
  %4 = alloca ptr, align 8
  store ptr %0, ptr %3, align 8, !tbaa !147
  store ptr %1, ptr %4, align 8, !tbaa !146
  %5 = load ptr, ptr %3, align 8
  %6 = getelementptr inbounds nuw %"class.__gnu_cxx::__normal_iterator", ptr %5, i32 0, i32 0
  %7 = load ptr, ptr %4, align 8, !tbaa !146
  %8 = load ptr, ptr %7, align 8, !tbaa !9
  store ptr %8, ptr %6, align 8, !tbaa !149
  ret void
}

; Function Attrs: mustprogress nounwind uwtable
define linkonce_odr noundef nonnull align 8 dereferenceable(16) ptr @_ZNK9__gnu_cxx17__normal_iteratorIPKN7rocksdb5SliceESt6vectorIS2_SaIS2_EEEdeEv(ptr noundef nonnull align 8 dereferenceable(8) %0) #1 comdat align 2 {
  %2 = alloca ptr, align 8
  store ptr %0, ptr %2, align 8, !tbaa !147
  %3 = load ptr, ptr %2, align 8
  %4 = getelementptr inbounds nuw %"class.__gnu_cxx::__normal_iterator", ptr %3, i32 0, i32 0
  %5 = load ptr, ptr %4, align 8, !tbaa !149
  ret ptr %5
}

; Function Attrs: mustprogress nounwind uwtable
define linkonce_odr ptr @_ZNK9__gnu_cxx17__normal_iteratorIPKN7rocksdb5SliceESt6vectorIS2_SaIS2_EEEmiEl(ptr noundef nonnull align 8 dereferenceable(8) %0, i64 noundef %1) #1 comdat align 2 {
  %3 = alloca %"class.__gnu_cxx::__normal_iterator", align 8
  %4 = alloca ptr, align 8
  %5 = alloca i64, align 8
  %6 = alloca ptr, align 8
  store ptr %0, ptr %4, align 8, !tbaa !147
  store i64 %1, ptr %5, align 8, !tbaa !19
  %7 = load ptr, ptr %4, align 8
  call void @llvm.lifetime.start.p0(i64 8, ptr %6) #18
  %8 = getelementptr inbounds nuw %"class.__gnu_cxx::__normal_iterator", ptr %7, i32 0, i32 0
  %9 = load ptr, ptr %8, align 8, !tbaa !149
  %10 = load i64, ptr %5, align 8, !tbaa !19
  %11 = sub i64 0, %10
  %12 = getelementptr inbounds %"class.rocksdb::Slice", ptr %9, i64 %11
  store ptr %12, ptr %6, align 8, !tbaa !9
  call void @_ZN9__gnu_cxx17__normal_iteratorIPKN7rocksdb5SliceESt6vectorIS2_SaIS2_EEEC2ERKS4_(ptr noundef nonnull align 8 dereferenceable(8) %3, ptr noundef nonnull align 8 dereferenceable(8) %6) #18
  call void @llvm.lifetime.end.p0(i64 8, ptr %6) #18
  %13 = getelementptr inbounds nuw %"class.__gnu_cxx::__normal_iterator", ptr %3, i32 0, i32 0
  %14 = load ptr, ptr %13, align 8
  ret ptr %14
}

; Function Attrs: mustprogress nounwind uwtable
define linkonce_odr ptr @_ZNKSt6vectorIN7rocksdb5SliceESaIS1_EE3endEv(ptr noundef nonnull align 8 dereferenceable(24) %0) #1 comdat align 2 {
  %2 = alloca %"class.__gnu_cxx::__normal_iterator", align 8
  %3 = alloca ptr, align 8
  store ptr %0, ptr %3, align 8, !tbaa !39
  %4 = load ptr, ptr %3, align 8
  %5 = getelementptr inbounds nuw %"struct.std::_Vector_base", ptr %4, i32 0, i32 0
  %6 = getelementptr inbounds nuw %"struct.std::_Vector_base<rocksdb::Slice, std::allocator<rocksdb::Slice>>::_Vector_impl_data", ptr %5, i32 0, i32 1
  call void @_ZN9__gnu_cxx17__normal_iteratorIPKN7rocksdb5SliceESt6vectorIS2_SaIS2_EEEC2ERKS4_(ptr noundef nonnull align 8 dereferenceable(8) %2, ptr noundef nonnull align 8 dereferenceable(8) %6) #18
  %7 = getelementptr inbounds nuw %"class.__gnu_cxx::__normal_iterator", ptr %2, i32 0, i32 0
  %8 = load ptr, ptr %7, align 8
  ret ptr %8
}

; Function Attrs: mustprogress nounwind uwtable
define linkonce_odr noundef nonnull align 8 dereferenceable(16) ptr @_ZNKSt6vectorIN7rocksdb5SliceESaIS1_EE4backEv(ptr noundef nonnull align 8 dereferenceable(24) %0) #1 comdat align 2 {
  %2 = alloca ptr, align 8
  %3 = alloca %"class.__gnu_cxx::__normal_iterator", align 8
  %4 = alloca %"class.__gnu_cxx::__normal_iterator", align 8
  store ptr %0, ptr %2, align 8, !tbaa !39
  %5 = load ptr, ptr %2, align 8
  call void @llvm.lifetime.start.p0(i64 8, ptr %3) #18
  call void @llvm.lifetime.start.p0(i64 8, ptr %4) #18
  %6 = call ptr @_ZNKSt6vectorIN7rocksdb5SliceESaIS1_EE3endEv(ptr noundef nonnull align 8 dereferenceable(24) %5) #18
  %7 = getelementptr inbounds nuw %"class.__gnu_cxx::__normal_iterator", ptr %4, i32 0, i32 0
  store ptr %6, ptr %7, align 8
  %8 = call ptr @_ZNK9__gnu_cxx17__normal_iteratorIPKN7rocksdb5SliceESt6vectorIS2_SaIS2_EEEmiEl(ptr noundef nonnull align 8 dereferenceable(8) %4, i64 noundef 1) #18
  %9 = getelementptr inbounds nuw %"class.__gnu_cxx::__normal_iterator", ptr %3, i32 0, i32 0
  store ptr %8, ptr %9, align 8
  %10 = call noundef nonnull align 8 dereferenceable(16) ptr @_ZNK9__gnu_cxx17__normal_iteratorIPKN7rocksdb5SliceESt6vectorIS2_SaIS2_EEEdeEv(ptr noundef nonnull align 8 dereferenceable(8) %3) #18
  call void @llvm.lifetime.end.p0(i64 8, ptr %4) #18
  call void @llvm.lifetime.end.p0(i64 8, ptr %3) #18
  ret ptr %10
}

; Function Attrs: mustprogress nounwind uwtable
define noundef zeroext i1 @_ZNK7rocksdb13PutOperatorV211FullMergeV2ERKNS_13MergeOperator19MergeOperationInputEPNS1_20MergeOperationOutputE(ptr noundef nonnull align 8 dereferenceable(32) %0, ptr noundef nonnull align 8 dereferenceable(32) %1, ptr noundef %2) unnamed_addr #1 align 2 {
  %4 = alloca ptr, align 8
  %5 = alloca ptr, align 8
  %6 = alloca ptr, align 8
  store ptr %0, ptr %4, align 8, !tbaa !26
  store ptr %1, ptr %5, align 8, !tbaa !28
  store ptr %2, ptr %6, align 8, !tbaa !30
  %7 = load ptr, ptr %5, align 8, !tbaa !28
  %8 = getelementptr inbounds nuw %"struct.rocksdb::MergeOperator::MergeOperationInput", ptr %7, i32 0, i32 2
  %9 = load ptr, ptr %8, align 8, !tbaa !32
  %10 = call noundef nonnull align 8 dereferenceable(16) ptr @_ZNKSt6vectorIN7rocksdb5SliceESaIS1_EE4backEv(ptr noundef nonnull align 8 dereferenceable(24) %9) #18
  %11 = load ptr, ptr %6, align 8, !tbaa !30
  %12 = getelementptr inbounds nuw %"struct.rocksdb::MergeOperator::MergeOperationOutput", ptr %11, i32 0, i32 1
  %13 = load ptr, ptr %12, align 8, !tbaa !35
  call void @llvm.memcpy.p0.p0.i64(ptr align 8 %13, ptr align 8 %10, i64 16, i1 false), !tbaa.struct !38
  ret i1 true
}